#include <math.h>
#include <stdio.h>
#include <stdlib.h>
#include <string.h>

main()
{
	int s1[300],i,n,j=0,a=0;
	float b,s2[300],c;
	scanf("%d",&n);
	for(i=0;i<n;i++)
		scanf("%d",&s1[i]);
	for(i=0;i<n;i++)
		a+=s1[i];
	b=(float)a/n;
	for(i=0;i<n;i++)
	{
		s2[i]=s1[i]-b;
		if(s2[i]<0)
			s2[i]=0-s2[i];
	}
	for(i=1,c=s2[0];i<n;i++)
	{
		if(s2[i]>c)
		{
			c=s2[i];
			j=i;
		}
	}
	printf("%d",s1[j]);
	for(i=0;i<n;i++)
	{
		if(s2[j]==s2[i]&&i!=j)
			printf(",%d",s1[i]);
	}
}